target datalayout = "e-m:e-p270:32:32-p271:32:32-p272:64:64-i64:64-i128:128-f80:128-n8:16:32:64-S128"
target triple = "x86_64-pc-linux-gnu"

%struct.AVFilterContext = type { ptr, ptr, ptr, ptr, ptr, i32, ptr, ptr, i32, ptr, ptr, i32, i32, ptr, ptr, ptr, ptr, i32, ptr, i32, i32 }
%struct.AudioDRCContext = type { ptr, double, double, ptr, double, double, i32, i32, i32, float, ptr, ptr, ptr, ptr, ptr, ptr, ptr, ptr, ptr, ptr, ptr, ptr, ptr, %struct.AVChannelLayout, ptr, ptr, ptr, ptr, ptr, [7 x double] }
%struct.AVChannelLayout = type { i32, i32, %union.anon.1, ptr }
%union.anon.1 = type { i64 }
%struct.AVFilterLink = type { ptr, ptr, ptr, ptr, i32, i32, i32, i32, %struct.AVRational, i32, i32, i32, %struct.AVChannelLayout, %struct.AVRational, ptr, i32, %struct.AVFilterFormatsConfig, %struct.AVFilterFormatsConfig }
%struct.AVRational = type { i32, i32 }
%struct.AVFilterFormatsConfig = type { ptr, ptr, ptr, ptr, ptr }
%struct.FilterLink = type { %struct.AVFilterLink, ptr, i64, i64, i32, i32, i64, i64, i64, i64, %struct.AVRational, ptr }
%struct.AVFrame = type { [8 x ptr], [8 x i32], ptr, i32, i32, i32, i32, i32, %struct.AVRational, i64, i64, %struct.AVRational, i32, ptr, i32, i32, [8 x ptr], ptr, i32, ptr, i32, i32, i32, i32, i32, i32, i32, i64, ptr, i32, ptr, ptr, i64, i64, i64, i64, ptr, %struct.AVChannelLayout, i64 }

@.str.19 = private unnamed_addr constant [4 x i8] c"all\00", align 1

; Function Attrs: inlinehint nounwind uwtable
define internal ptr @ff_filter_link(ptr noundef %0) #6 {
  %2 = alloca ptr, align 8
  store ptr %0, ptr %2, align 8, !tbaa !42
  %3 = load ptr, ptr %2, align 8, !tbaa !42
  ret ptr %3
}

; Function Attrs: inlinehint nounwind uwtable
define internal void @ff_outlink_set_status(ptr noundef %0, i32 noundef %1, i64 noundef %2) #6 {
  %4 = alloca ptr, align 8
  %5 = alloca i32, align 4
  %6 = alloca i64, align 8
  store ptr %0, ptr %4, align 8, !tbaa !42
  store i32 %1, ptr %5, align 4, !tbaa !33
  store i64 %2, ptr %6, align 8, !tbaa !59
  %7 = load ptr, ptr %4, align 8, !tbaa !42
  %8 = load i32, ptr %5, align 4, !tbaa !33
  %9 = load i64, ptr %6, align 8, !tbaa !59
  call void @ff_avfilter_link_set_in_status(ptr noundef %7, i32 noundef %8, i64 noundef %9)
  ret void
}

; Function Attrs: nounwind uwtable
define internal i32 @filter_frame(ptr noundef %0, ptr noundef %1) #1 {
  %3 = alloca ptr, align 8
  %4 = alloca ptr, align 8
  %5 = alloca ptr, align 8
  %6 = alloca ptr, align 8
  %7 = alloca ptr, align 8
  %8 = alloca ptr, align 8
  %9 = alloca ptr, align 8
  %10 = alloca i32, align 4
  store ptr %0, ptr %3, align 8, !tbaa !42
  store ptr %1, ptr %4, align 8, !tbaa !45
  call void @llvm.lifetime.start.p0(i64 8, ptr %5) #10
  %11 = load ptr, ptr %3, align 8, !tbaa !42
  %12 = getelementptr inbounds nuw %struct.AVFilterLink, ptr %11, i32 0, i32 2
  %13 = load ptr, ptr %12, align 8, !tbaa !61
  store ptr %13, ptr %5, align 8, !tbaa !4
  call void @llvm.lifetime.start.p0(i64 8, ptr %6) #10
  %14 = load ptr, ptr %5, align 8, !tbaa !4
  %15 = getelementptr inbounds nuw %struct.AVFilterContext, ptr %14, i32 0, i32 7
  %16 = load ptr, ptr %15, align 8, !tbaa !44
  %17 = getelementptr inbounds ptr, ptr %16, i64 0
  %18 = load ptr, ptr %17, align 8, !tbaa !42
  store ptr %18, ptr %6, align 8, !tbaa !42
  call void @llvm.lifetime.start.p0(i64 8, ptr %7) #10
  %19 = load ptr, ptr %6, align 8, !tbaa !42
  %20 = call ptr @ff_filter_link(ptr noundef %19)
  store ptr %20, ptr %7, align 8, !tbaa !81
  call void @llvm.lifetime.start.p0(i64 8, ptr %8) #10
  %21 = load ptr, ptr %5, align 8, !tbaa !4
  %22 = getelementptr inbounds nuw %struct.AVFilterContext, ptr %21, i32 0, i32 9
  %23 = load ptr, ptr %22, align 8, !tbaa !9
  store ptr %23, ptr %8, align 8, !tbaa !22
  call void @llvm.lifetime.start.p0(i64 8, ptr %9) #10
  call void @llvm.lifetime.start.p0(i64 4, ptr %10) #10
  %24 = load ptr, ptr %6, align 8, !tbaa !42
  %25 = load ptr, ptr %8, align 8, !tbaa !22
  %26 = getelementptr inbounds nuw %struct.AudioDRCContext, ptr %25, i32 0, i32 7
  %27 = load i32, ptr %26, align 4, !tbaa !47
  %28 = call ptr @ff_get_audio_buffer(ptr noundef %24, i32 noundef %27)
  store ptr %28, ptr %9, align 8, !tbaa !45
  %29 = load ptr, ptr %9, align 8, !tbaa !45
  %30 = icmp ne ptr %29, null
  br i1 %30, label %32, label %31

31:                                               ; preds = %2
  store i32 -12, ptr %10, align 4, !tbaa !33
  br label %92

32:                                               ; preds = %2
  %33 = load ptr, ptr %7, align 8, !tbaa !81
  %34 = getelementptr inbounds nuw %struct.FilterLink, ptr %33, i32 0, i32 8
  %35 = load i64, ptr %34, align 8, !tbaa !83
  %36 = sitofp i64 %35 to double
  %37 = load ptr, ptr %8, align 8, !tbaa !22
  %38 = getelementptr inbounds nuw %struct.AudioDRCContext, ptr %37, i32 0, i32 29
  %39 = getelementptr inbounds [7 x double], ptr %38, i64 0, i64 1
  store double %36, ptr %39, align 8, !tbaa !78
  %40 = load ptr, ptr %8, align 8, !tbaa !22
  %41 = getelementptr inbounds nuw %struct.AudioDRCContext, ptr %40, i32 0, i32 29
  %42 = getelementptr inbounds [7 x double], ptr %41, i64 0, i64 1
  %43 = load double, ptr %42, align 8, !tbaa !78
  %44 = fmul nsz double %43, 1.000000e+00
  %45 = load ptr, ptr %6, align 8, !tbaa !42
  %46 = getelementptr inbounds nuw %struct.AVFilterLink, ptr %45, i32 0, i32 11
  %47 = load i32, ptr %46, align 8, !tbaa !49
  %48 = sitofp i32 %47 to double
  %49 = fdiv nsz double %44, %48
  %50 = load ptr, ptr %8, align 8, !tbaa !22
  %51 = getelementptr inbounds nuw %struct.AudioDRCContext, ptr %50, i32 0, i32 29
  %52 = getelementptr inbounds [7 x double], ptr %51, i64 0, i64 3
  store double %49, ptr %52, align 8, !tbaa !78
  %53 = load ptr, ptr %4, align 8, !tbaa !45
  %54 = load ptr, ptr %8, align 8, !tbaa !22
  %55 = getelementptr inbounds nuw %struct.AudioDRCContext, ptr %54, i32 0, i32 15
  store ptr %53, ptr %55, align 8, !tbaa !85
  %56 = load ptr, ptr %9, align 8, !tbaa !45
  %57 = load ptr, ptr %4, align 8, !tbaa !45
  %58 = call i32 @av_frame_copy_props(ptr noundef %56, ptr noundef %57)
  %59 = load ptr, ptr %5, align 8, !tbaa !4
  %60 = load ptr, ptr %9, align 8, !tbaa !45
  %61 = load ptr, ptr %6, align 8, !tbaa !42
  %62 = getelementptr inbounds nuw %struct.AVFilterLink, ptr %61, i32 0, i32 12
  %63 = getelementptr inbounds nuw %struct.AVChannelLayout, ptr %62, i32 0, i32 1
  %64 = load i32, ptr %63, align 4, !tbaa !75
  %65 = load ptr, ptr %5, align 8, !tbaa !4
  %66 = call i32 @ff_filter_get_nb_threads(ptr noundef %65) #11
  %67 = icmp sgt i32 %64, %66
  br i1 %67, label %68, label %71

68:                                               ; preds = %32
  %69 = load ptr, ptr %5, align 8, !tbaa !4
  %70 = call i32 @ff_filter_get_nb_threads(ptr noundef %69) #11
  br label %76

71:                                               ; preds = %32
  %72 = load ptr, ptr %6, align 8, !tbaa !42
  %73 = getelementptr inbounds nuw %struct.AVFilterLink, ptr %72, i32 0, i32 12
  %74 = getelementptr inbounds nuw %struct.AVChannelLayout, ptr %73, i32 0, i32 1
  %75 = load i32, ptr %74, align 4, !tbaa !75
  br label %76

76:                                               ; preds = %71, %68
  %77 = phi i32 [ %70, %68 ], [ %75, %71 ]
  %78 = call i32 @ff_filter_execute(ptr noundef %59, ptr noundef @drc_channels, ptr noundef %60, ptr noundef null, i32 noundef %77)
  %79 = load ptr, ptr %4, align 8, !tbaa !45
  %80 = getelementptr inbounds nuw %struct.AVFrame, ptr %79, i32 0, i32 9
  %81 = load i64, ptr %80, align 8, !tbaa !86
  %82 = load ptr, ptr %9, align 8, !tbaa !45
  %83 = getelementptr inbounds nuw %struct.AVFrame, ptr %82, i32 0, i32 9
  store i64 %81, ptr %83, align 8, !tbaa !86
  %84 = load ptr, ptr %4, align 8, !tbaa !45
  %85 = getelementptr inbounds nuw %struct.AVFrame, ptr %84, i32 0, i32 5
  %86 = load i32, ptr %85, align 8, !tbaa !91
  %87 = load ptr, ptr %9, align 8, !tbaa !45
  %88 = getelementptr inbounds nuw %struct.AVFrame, ptr %87, i32 0, i32 5
  store i32 %86, ptr %88, align 8, !tbaa !91
  %89 = load ptr, ptr %6, align 8, !tbaa !42
  %90 = load ptr, ptr %9, align 8, !tbaa !45
  %91 = call i32 @ff_filter_frame(ptr noundef %89, ptr noundef %90)
  store i32 %91, ptr %10, align 4, !tbaa !33
  br label %92

92:                                               ; preds = %76, %31
  call void @av_frame_free(ptr noundef %4)
  %93 = load ptr, ptr %8, align 8, !tbaa !22
  %94 = getelementptr inbounds nuw %struct.AudioDRCContext, ptr %93, i32 0, i32 15
  store ptr null, ptr %94, align 8, !tbaa !85
  %95 = load i32, ptr %10, align 4, !tbaa !33
  %96 = icmp slt i32 %95, 0
  br i1 %96, label %97, label %99

97:                                               ; preds = %92
  %98 = load i32, ptr %10, align 4, !tbaa !33
  br label %100

99:                                               ; preds = %92
  br label %100

100:                                              ; preds = %99, %97
  %101 = phi i32 [ %98, %97 ], [ 0, %99 ]
  call void @llvm.lifetime.end.p0(i64 4, ptr %10) #10
  call void @llvm.lifetime.end.p0(i64 8, ptr %9) #10
  call void @llvm.lifetime.end.p0(i64 8, ptr %8) #10
  call void @llvm.lifetime.end.p0(i64 8, ptr %7) #10
  call void @llvm.lifetime.end.p0(i64 8, ptr %6) #10
  call void @llvm.lifetime.end.p0(i64 8, ptr %5) #10
  ret i32 %101
}

; Function Attrs: nounwind uwtable
define internal i32 @activate(ptr noundef %0) #1 {
  %2 = alloca i32, align 4
  %3 = alloca ptr, align 8
  %4 = alloca ptr, align 8
  %5 = alloca ptr, align 8
  %6 = alloca ptr, align 8
  %7 = alloca ptr, align 8
  %8 = alloca i32, align 4
  %9 = alloca i32, align 4
  %10 = alloca i64, align 8
  %11 = alloca i32, align 4
  %12 = alloca i32, align 4
  store ptr %0, ptr %3, align 8, !tbaa !4
  call void @llvm.lifetime.start.p0(i64 8, ptr %4) #10
  %13 = load ptr, ptr %3, align 8, !tbaa !4
  %14 = getelementptr inbounds nuw %struct.AVFilterContext, ptr %13, i32 0, i32 4
  %15 = load ptr, ptr %14, align 8, !tbaa !41
  %16 = getelementptr inbounds ptr, ptr %15, i64 0
  %17 = load ptr, ptr %16, align 8, !tbaa !42
  store ptr %17, ptr %4, align 8, !tbaa !42
  call void @llvm.lifetime.start.p0(i64 8, ptr %5) #10
  %18 = load ptr, ptr %3, align 8, !tbaa !4
  %19 = getelementptr inbounds nuw %struct.AVFilterContext, ptr %18, i32 0, i32 7
  %20 = load ptr, ptr %19, align 8, !tbaa !44
  %21 = getelementptr inbounds ptr, ptr %20, i64 0
  %22 = load ptr, ptr %21, align 8, !tbaa !42
  store ptr %22, ptr %5, align 8, !tbaa !42
  call void @llvm.lifetime.start.p0(i64 8, ptr %6) #10
  %23 = load ptr, ptr %3, align 8, !tbaa !4
  %24 = getelementptr inbounds nuw %struct.AVFilterContext, ptr %23, i32 0, i32 9
  %25 = load ptr, ptr %24, align 8, !tbaa !9
  store ptr %25, ptr %6, align 8, !tbaa !22
  call void @llvm.lifetime.start.p0(i64 8, ptr %7) #10
  store ptr null, ptr %7, align 8, !tbaa !45
  call void @llvm.lifetime.start.p0(i64 4, ptr %8) #10
  store i32 0, ptr %8, align 4, !tbaa !33
  call void @llvm.lifetime.start.p0(i64 4, ptr %9) #10
  call void @llvm.lifetime.start.p0(i64 8, ptr %10) #10
  %26 = load ptr, ptr %6, align 8, !tbaa !22
  %27 = getelementptr inbounds nuw %struct.AudioDRCContext, ptr %26, i32 0, i32 23
  %28 = load ptr, ptr %4, align 8, !tbaa !42
  %29 = getelementptr inbounds nuw %struct.AVFilterLink, ptr %28, i32 0, i32 12
  %30 = call i32 @av_channel_layout_copy(ptr noundef %27, ptr noundef %29)
  store i32 %30, ptr %8, align 4, !tbaa !33
  %31 = load i32, ptr %8, align 4, !tbaa !33
  %32 = icmp slt i32 %31, 0
  br i1 %32, label %33, label %35

33:                                               ; preds = %1
  %34 = load i32, ptr %8, align 4, !tbaa !33
  store i32 %34, ptr %2, align 4
  store i32 1, ptr %11, align 4
  br label %137

35:                                               ; preds = %1
  %36 = load ptr, ptr %6, align 8, !tbaa !22
  %37 = getelementptr inbounds nuw %struct.AudioDRCContext, ptr %36, i32 0, i32 22
  %38 = load ptr, ptr %37, align 8, !tbaa !46
  %39 = call i32 @strcmp(ptr noundef %38, ptr noundef @.str.19) #11
  %40 = icmp ne i32 %39, 0
  br i1 %40, label %41, label %48

41:                                               ; preds = %35
  %42 = load ptr, ptr %6, align 8, !tbaa !22
  %43 = getelementptr inbounds nuw %struct.AudioDRCContext, ptr %42, i32 0, i32 23
  %44 = load ptr, ptr %6, align 8, !tbaa !22
  %45 = getelementptr inbounds nuw %struct.AudioDRCContext, ptr %44, i32 0, i32 22
  %46 = load ptr, ptr %45, align 8, !tbaa !46
  %47 = call i32 @av_channel_layout_from_string(ptr noundef %43, ptr noundef %46)
  br label %48

48:                                               ; preds = %41, %35
  br label %49

49:                                               ; preds = %48
  call void @llvm.lifetime.start.p0(i64 4, ptr %12) #10
  %50 = load ptr, ptr %5, align 8, !tbaa !42
  %51 = call i32 @ff_outlink_get_status(ptr noundef %50)
  store i32 %51, ptr %12, align 4, !tbaa !33
  %52 = load i32, ptr %12, align 4, !tbaa !33
  %53 = icmp ne i32 %52, 0
  br i1 %53, label %54, label %57

54:                                               ; preds = %49
  %55 = load ptr, ptr %4, align 8, !tbaa !42
  %56 = load i32, ptr %12, align 4, !tbaa !33
  call void @ff_inlink_set_status(ptr noundef %55, i32 noundef %56)
  store i32 0, ptr %2, align 4
  store i32 1, ptr %11, align 4
  br label %58

57:                                               ; preds = %49
  store i32 0, ptr %11, align 4
  br label %58

58:                                               ; preds = %57, %54
  call void @llvm.lifetime.end.p0(i64 4, ptr %12) #10
  %59 = load i32, ptr %11, align 4
  switch i32 %59, label %137 [
    i32 0, label %60
  ]

60:                                               ; preds = %58
  br label %61

61:                                               ; preds = %60
  br label %62

62:                                               ; preds = %61
  %63 = load ptr, ptr %4, align 8, !tbaa !42
  %64 = load ptr, ptr %6, align 8, !tbaa !22
  %65 = getelementptr inbounds nuw %struct.AudioDRCContext, ptr %64, i32 0, i32 7
  %66 = load i32, ptr %65, align 4, !tbaa !47
  %67 = load ptr, ptr %6, align 8, !tbaa !22
  %68 = getelementptr inbounds nuw %struct.AudioDRCContext, ptr %67, i32 0, i32 7
  %69 = load i32, ptr %68, align 4, !tbaa !47
  %70 = call i32 @ff_inlink_consume_samples(ptr noundef %63, i32 noundef %66, i32 noundef %69, ptr noundef %7)
  store i32 %70, ptr %8, align 4, !tbaa !33
  %71 = load i32, ptr %8, align 4, !tbaa !33
  %72 = icmp slt i32 %71, 0
  br i1 %72, label %73, label %75

73:                                               ; preds = %62
  %74 = load i32, ptr %8, align 4, !tbaa !33
  store i32 %74, ptr %2, align 4
  store i32 1, ptr %11, align 4
  br label %137

75:                                               ; preds = %62
  %76 = load i32, ptr %8, align 4, !tbaa !33
  %77 = icmp sgt i32 %76, 0
  br i1 %77, label %78, label %112

78:                                               ; preds = %75
  %79 = load ptr, ptr %6, align 8, !tbaa !22
  %80 = getelementptr inbounds nuw %struct.AudioDRCContext, ptr %79, i32 0, i32 1
  %81 = load double, ptr %80, align 8, !tbaa !48
  %82 = load ptr, ptr %4, align 8, !tbaa !42
  %83 = getelementptr inbounds nuw %struct.AVFilterLink, ptr %82, i32 0, i32 11
  %84 = load i32, ptr %83, align 8, !tbaa !49
  %85 = sitofp i32 %84 to double
  %86 = fmul nsz double %81, %85
  %87 = fdiv nsz double %86, 1.000000e+03
  %88 = fdiv nsz double -1.000000e+00, %87
  %89 = fptrunc nsz double %88 to float
  %90 = call nsz float @llvm.exp.f32(float %89)
  %91 = fpext nsz float %90 to double
  %92 = load ptr, ptr %6, align 8, !tbaa !22
  %93 = getelementptr inbounds nuw %struct.AudioDRCContext, ptr %92, i32 0, i32 4
  store double %91, ptr %93, align 8, !tbaa !56
  %94 = load ptr, ptr %6, align 8, !tbaa !22
  %95 = getelementptr inbounds nuw %struct.AudioDRCContext, ptr %94, i32 0, i32 2
  %96 = load double, ptr %95, align 8, !tbaa !57
  %97 = load ptr, ptr %4, align 8, !tbaa !42
  %98 = getelementptr inbounds nuw %struct.AVFilterLink, ptr %97, i32 0, i32 11
  %99 = load i32, ptr %98, align 8, !tbaa !49
  %100 = sitofp i32 %99 to double
  %101 = fmul nsz double %96, %100
  %102 = fdiv nsz double %101, 1.000000e+03
  %103 = fdiv nsz double -1.000000e+00, %102
  %104 = fptrunc nsz double %103 to float
  %105 = call nsz float @llvm.exp.f32(float %104)
  %106 = fpext nsz float %105 to double
  %107 = load ptr, ptr %6, align 8, !tbaa !22
  %108 = getelementptr inbounds nuw %struct.AudioDRCContext, ptr %107, i32 0, i32 5
  store double %106, ptr %108, align 8, !tbaa !58
  %109 = load ptr, ptr %4, align 8, !tbaa !42
  %110 = load ptr, ptr %7, align 8, !tbaa !45
  %111 = call i32 @filter_frame(ptr noundef %109, ptr noundef %110)
  store i32 %111, ptr %2, align 4
  store i32 1, ptr %11, align 4
  br label %137

112:                                              ; preds = %75
  %113 = load ptr, ptr %4, align 8, !tbaa !42
  %114 = call i32 @ff_inlink_acknowledge_status(ptr noundef %113, ptr noundef %9, ptr noundef %10)
  %115 = icmp ne i32 %114, 0
  br i1 %115, label %116, label %120

116:                                              ; preds = %112
  %117 = load ptr, ptr %5, align 8, !tbaa !42
  %118 = load i32, ptr %9, align 4, !tbaa !33
  %119 = load i64, ptr %10, align 8, !tbaa !59
  call void @ff_outlink_set_status(ptr noundef %117, i32 noundef %118, i64 noundef %119)
  store i32 0, ptr %2, align 4
  store i32 1, ptr %11, align 4
  br label %137

120:                                              ; preds = %112
  %121 = load ptr, ptr %4, align 8, !tbaa !42
  %122 = call i32 @ff_inlink_queued_samples(ptr noundef %121)
  %123 = load ptr, ptr %6, align 8, !tbaa !22
  %124 = getelementptr inbounds nuw %struct.AudioDRCContext, ptr %123, i32 0, i32 7
  %125 = load i32, ptr %124, align 4, !tbaa !47
  %126 = icmp sge i32 %122, %125
  br i1 %126, label %127, label %129

127:                                              ; preds = %120
  %128 = load ptr, ptr %3, align 8, !tbaa !4
  call void @ff_filter_set_ready(ptr noundef %128, i32 noundef 10)
  br label %136

129:                                              ; preds = %120
  %130 = load ptr, ptr %5, align 8, !tbaa !42
  %131 = call i32 @ff_outlink_frame_wanted(ptr noundef %130)
  %132 = icmp ne i32 %131, 0
  br i1 %132, label %133, label %135

133:                                              ; preds = %129
  %134 = load ptr, ptr %4, align 8, !tbaa !42
  call void @ff_inlink_request_frame(ptr noundef %134)
  br label %135

135:                                              ; preds = %133, %129
  br label %136

136:                                              ; preds = %135, %127
  store i32 0, ptr %2, align 4
  store i32 1, ptr %11, align 4
  br label %137

137:                                              ; preds = %136, %116, %78, %73, %58, %33
  call void @llvm.lifetime.end.p0(i64 8, ptr %10) #10
  call void @llvm.lifetime.end.p0(i64 4, ptr %9) #10
  call void @llvm.lifetime.end.p0(i64 4, ptr %8) #10
  call void @llvm.lifetime.end.p0(i64 8, ptr %7) #10
  call void @llvm.lifetime.end.p0(i64 8, ptr %6) #10
  call void @llvm.lifetime.end.p0(i64 8, ptr %5) #10
  call void @llvm.lifetime.end.p0(i64 8, ptr %4) #10
  %138 = load i32, ptr %2, align 4
  ret i32 %138
}