; Function Attrs: nounwind uwtable
define internal range(i32 -2147483648, 1) i32 @activate(ptr noundef %0) #1 {
  %2 = alloca ptr, align 8
  %3 = alloca ptr, align 8
  %4 = alloca i32, align 4
  %5 = alloca i64, align 8
  %6 = getelementptr inbounds nuw i8, ptr %0, i64 32
  %7 = load ptr, ptr %6, align 8, !tbaa !35
  %8 = load ptr, ptr %7, align 8, !tbaa !36
  %9 = getelementptr inbounds nuw i8, ptr %0, i64 56
  %10 = load ptr, ptr %9, align 8, !tbaa !38
  %11 = load ptr, ptr %10, align 8, !tbaa !36
  %12 = getelementptr inbounds nuw i8, ptr %0, i64 72
  %13 = load ptr, ptr %12, align 8, !tbaa !4
  call void @llvm.lifetime.start.p0(i64 8, ptr nonnull %3) #10
  store ptr null, ptr %3, align 8, !tbaa !39
  call void @llvm.lifetime.start.p0(i64 4, ptr nonnull %4) #10
  call void @llvm.lifetime.start.p0(i64 8, ptr nonnull %5) #10
  %14 = getelementptr inbounds nuw i8, ptr %13, i64 168
  %15 = getelementptr inbounds nuw i8, ptr %8, i64 72
  %16 = tail call i32 @av_channel_layout_copy(ptr noundef nonnull %14, ptr noundef nonnull %15) #10
  %17 = icmp slt i32 %16, 0
  br i1 %17, label %101, label %18

18:                                               ; preds = %1
  %19 = getelementptr inbounds nuw i8, ptr %13, i64 160
  %20 = load ptr, ptr %19, align 8, !tbaa !40
  %21 = tail call i32 @strcmp(ptr noundef nonnull dereferenceable(1) %20, ptr noundef nonnull dereferenceable(4) @.str.19) #11
  %.not = icmp eq i32 %21, 0
  br i1 %.not, label %24, label %22

22:                                               ; preds = %18
  %23 = tail call i32 @av_channel_layout_from_string(ptr noundef nonnull %14, ptr noundef nonnull %20) #10
  br label %24

24:                                               ; preds = %18, %22
  %25 = tail call i32 @ff_outlink_get_status(ptr noundef %11) #10
  %.not39 = icmp eq i32 %25, 0
  br i1 %.not39, label %.critedge, label %26

26:                                               ; preds = %24
  tail call void @ff_inlink_set_status(ptr noundef nonnull %8, i32 noundef %25) #10
  br label %101

.critedge:                                        ; preds = %24
  %27 = getelementptr inbounds nuw i8, ptr %13, i64 52
  %28 = load i32, ptr %27, align 4, !tbaa !41
  %29 = call i32 @ff_inlink_consume_samples(ptr noundef nonnull %8, i32 noundef %28, i32 noundef %28, ptr noundef nonnull %3) #10
  %30 = icmp slt i32 %29, 0
  br i1 %30, label %101, label %31

31:                                               ; preds = %.critedge
  %.not40 = icmp eq i32 %29, 0
  br i1 %.not40, label %89, label %32

32:                                               ; preds = %31
  %33 = getelementptr inbounds nuw i8, ptr %13, i64 8
  %34 = load double, ptr %33, align 8, !tbaa !42
  %35 = getelementptr inbounds nuw i8, ptr %8, i64 64
  %36 = load i32, ptr %35, align 8, !tbaa !43
  %37 = sitofp i32 %36 to double
  %38 = fmul nsz double %34, %37
  %39 = fdiv nsz double %38, 1.000000e+03
  %40 = fdiv nsz double -1.000000e+00, %39
  %41 = fptrunc nsz double %40 to float
  %42 = call nsz float @llvm.exp.f32(float %41)
  %43 = fpext nsz float %42 to double
  %44 = getelementptr inbounds nuw i8, ptr %13, i64 32
  store double %43, ptr %44, align 8, !tbaa !51
  %45 = getelementptr inbounds nuw i8, ptr %13, i64 16
  %46 = load double, ptr %45, align 8, !tbaa !52
  %47 = fmul nsz double %46, %37
  %48 = fdiv nsz double %47, 1.000000e+03
  %49 = fdiv nsz double -1.000000e+00, %48
  %50 = fptrunc nsz double %49 to float
  %51 = call nsz float @llvm.exp.f32(float %50)
  %52 = fpext nsz float %51 to double
  %53 = getelementptr inbounds nuw i8, ptr %13, i64 40
  store double %52, ptr %53, align 8, !tbaa !53
  %54 = load ptr, ptr %3, align 8, !tbaa !39
  %55 = getelementptr i8, ptr %8, i64 16
  %.val = load ptr, ptr %55, align 8, !tbaa !54
  call void @llvm.lifetime.start.p0(i64 8, ptr nonnull %2)
  store ptr %54, ptr %2, align 8, !tbaa !39
  %56 = getelementptr inbounds nuw i8, ptr %.val, i64 56
  %57 = load ptr, ptr %56, align 8, !tbaa !38
  %58 = load ptr, ptr %57, align 8, !tbaa !36
  %59 = getelementptr inbounds nuw i8, ptr %.val, i64 72
  %60 = load ptr, ptr %59, align 8, !tbaa !4
  %61 = getelementptr inbounds nuw i8, ptr %60, i64 52
  %62 = load i32, ptr %61, align 4, !tbaa !41
  %63 = call ptr @ff_get_audio_buffer(ptr noundef %58, i32 noundef %62) #10
  %.not.i = icmp eq ptr %63, null
  br i1 %.not.i, label %filter_frame.exit, label %64

64:                                               ; preds = %32
  %65 = getelementptr inbounds nuw i8, ptr %58, i64 248
  %66 = load i64, ptr %65, align 8, !tbaa !55
  %67 = sitofp i64 %66 to double
  %68 = getelementptr inbounds nuw i8, ptr %60, i64 240
  store double %67, ptr %68, align 8, !tbaa !58
  %69 = getelementptr inbounds nuw i8, ptr %58, i64 64
  %70 = load i32, ptr %69, align 8, !tbaa !43
  %71 = sitofp i32 %70 to double
  %72 = fdiv nsz double %67, %71
  %73 = getelementptr inbounds nuw i8, ptr %60, i64 256
  store double %72, ptr %73, align 8, !tbaa !58
  %74 = getelementptr inbounds nuw i8, ptr %60, i64 104
  store ptr %54, ptr %74, align 8, !tbaa !59
  %75 = call i32 @av_frame_copy_props(ptr noundef nonnull %63, ptr noundef %54) #10
  %76 = getelementptr inbounds nuw i8, ptr %58, i64 76
  %77 = load i32, ptr %76, align 4, !tbaa !60
  %78 = call i32 @ff_filter_get_nb_threads(ptr noundef nonnull %.val) #11
  %..i = call i32 @llvm.smin.i32(i32 %77, i32 %78)
  %79 = call i32 @ff_filter_execute(ptr noundef nonnull %.val, ptr noundef nonnull @drc_channels, ptr noundef nonnull %63, ptr noundef null, i32 noundef %..i) #10
  %80 = getelementptr inbounds nuw i8, ptr %54, i64 136
  %81 = load i64, ptr %80, align 8, !tbaa !61
  %82 = getelementptr inbounds nuw i8, ptr %63, i64 136
  store i64 %81, ptr %82, align 8, !tbaa !61
  %83 = getelementptr inbounds nuw i8, ptr %54, i64 112
  %84 = load i32, ptr %83, align 8, !tbaa !66
  %85 = getelementptr inbounds nuw i8, ptr %63, i64 112
  store i32 %84, ptr %85, align 8, !tbaa !66
  %86 = call i32 @ff_filter_frame(ptr noundef %58, ptr noundef nonnull %63) #10
  br label %filter_frame.exit

filter_frame.exit:                                ; preds = %32, %64
  %.0.i = phi i32 [ %86, %64 ], [ -12, %32 ]
  call void @av_frame_free(ptr noundef nonnull %2) #10
  %87 = getelementptr inbounds nuw i8, ptr %60, i64 104
  store ptr null, ptr %87, align 8, !tbaa !59
  %88 = call range(i32 -2147483648, 1) i32 @llvm.smin.i32(i32 %.0.i, i32 0)
  call void @llvm.lifetime.end.p0(i64 8, ptr nonnull %2)
  br label %101

89:                                               ; preds = %31
  %90 = call i32 @ff_inlink_acknowledge_status(ptr noundef nonnull %8, ptr noundef nonnull %4, ptr noundef nonnull %5) #10
  %.not41 = icmp eq i32 %90, 0
  br i1 %.not41, label %94, label %91

91:                                               ; preds = %89
  %92 = load i32, ptr %4, align 4, !tbaa !67
  %93 = load i64, ptr %5, align 8, !tbaa !68
  call void @ff_avfilter_link_set_in_status(ptr noundef %11, i32 noundef %92, i64 noundef %93) #10
  br label %101

94:                                               ; preds = %89
  %95 = call i32 @ff_inlink_queued_samples(ptr noundef nonnull %8) #10
  %96 = load i32, ptr %27, align 4, !tbaa !41
  %.not42 = icmp slt i32 %95, %96
  br i1 %.not42, label %98, label %97

97:                                               ; preds = %94
  call void @ff_filter_set_ready(ptr noundef nonnull %0, i32 noundef 10) #10
  br label %101

98:                                               ; preds = %94
  %99 = call i32 @ff_outlink_frame_wanted(ptr noundef %11) #10
  %.not43 = icmp eq i32 %99, 0
  br i1 %.not43, label %101, label %100

100:                                              ; preds = %98
  call void @ff_inlink_request_frame(ptr noundef nonnull %8) #10
  br label %101

101:                                              ; preds = %26, %97, %100, %98, %.critedge, %1, %91, %filter_frame.exit
  %.0 = phi i32 [ %88, %filter_frame.exit ], [ 0, %91 ], [ 0, %26 ], [ %16, %1 ], [ %29, %.critedge ], [ 0, %98 ], [ 0, %100 ], [ 0, %97 ]
  call void @llvm.lifetime.end.p0(i64 8, ptr nonnull %5) #10
  call void @llvm.lifetime.end.p0(i64 4, ptr nonnull %4) #10
  call void @llvm.lifetime.end.p0(i64 8, ptr nonnull %3) #10
  ret i32 %.0
}